target datalayout = "e-m:e-p270:32:32-p271:32:32-p272:64:64-i64:64-i128:128-f80:128-n8:16:32:64-S128"
target triple = "x86_64-pc-linux-gnu"

%struct.__loadu_si128 = type { <2 x i64> }
%struct.__storeu_si128 = type { <2 x i64> }

; Function Attrs: alwaysinline nounwind uwtable
define internal <2 x i64> @_mm_set_epi32(i32 noundef %0, i32 noundef %1, i32 noundef %2, i32 noundef %3) #3 {
  %5 = alloca i32, align 4
  %6 = alloca i32, align 4
  %7 = alloca i32, align 4
  %8 = alloca i32, align 4
  %9 = alloca <4 x i32>, align 16
  store i32 %0, ptr %5, align 4, !tbaa !9
  store i32 %1, ptr %6, align 4, !tbaa !9
  store i32 %2, ptr %7, align 4, !tbaa !9
  store i32 %3, ptr %8, align 4, !tbaa !9
  %10 = load i32, ptr %8, align 4, !tbaa !9
  %11 = insertelement <4 x i32> poison, i32 %10, i32 0
  %12 = load i32, ptr %7, align 4, !tbaa !9
  %13 = insertelement <4 x i32> %11, i32 %12, i32 1
  %14 = load i32, ptr %6, align 4, !tbaa !9
  %15 = insertelement <4 x i32> %13, i32 %14, i32 2
  %16 = load i32, ptr %5, align 4, !tbaa !9
  %17 = insertelement <4 x i32> %15, i32 %16, i32 3
  store <4 x i32> %17, ptr %9, align 16, !tbaa !11
  %18 = load <4 x i32>, ptr %9, align 16, !tbaa !11
  %19 = bitcast <4 x i32> %18 to <2 x i64>
  ret <2 x i64> %19
}

; Function Attrs: alwaysinline nounwind uwtable
define internal void @_mm_storeu_si128(ptr noundef %0, <2 x i64> noundef %1) #3 {
  %3 = alloca ptr, align 8
  %4 = alloca <2 x i64>, align 16
  store ptr %0, ptr %3, align 8, !tbaa !3
  store <2 x i64> %1, ptr %4, align 16, !tbaa !11
  %5 = load <2 x i64>, ptr %4, align 16, !tbaa !11
  %6 = load ptr, ptr %3, align 8, !tbaa !3
  %7 = getelementptr inbounds nuw %struct.__storeu_si128, ptr %6, i32 0, i32 0
  store <2 x i64> %5, ptr %7, align 1, !tbaa !11
  ret void
}

; Function Attrs: alwaysinline nounwind uwtable
define internal <2 x i64> @_mm_or_si128(<2 x i64> noundef %0, <2 x i64> noundef %1) #3 {
  %3 = alloca <2 x i64>, align 16
  %4 = alloca <2 x i64>, align 16
  store <2 x i64> %0, ptr %3, align 16, !tbaa !11
  store <2 x i64> %1, ptr %4, align 16, !tbaa !11
  %5 = load <2 x i64>, ptr %3, align 16, !tbaa !11
  %6 = load <2 x i64>, ptr %4, align 16, !tbaa !11
  %7 = or <2 x i64> %5, %6
  ret <2 x i64> %7
}

; Function Attrs: alwaysinline nounwind uwtable
define internal <2 x i64> @_mm_andnot_si128(<2 x i64> noundef %0, <2 x i64> noundef %1) #3 {
  %3 = alloca <2 x i64>, align 16
  %4 = alloca <2 x i64>, align 16
  store <2 x i64> %0, ptr %3, align 16, !tbaa !11
  store <2 x i64> %1, ptr %4, align 16, !tbaa !11
  %5 = load <2 x i64>, ptr %3, align 16, !tbaa !11
  %6 = xor <2 x i64> %5, splat (i64 -1)
  %7 = load <2 x i64>, ptr %4, align 16, !tbaa !11
  %8 = and <2 x i64> %6, %7
  ret <2 x i64> %8
}

; Function Attrs: alwaysinline nounwind uwtable
define internal <2 x i64> @_mm_and_si128(<2 x i64> noundef %0, <2 x i64> noundef %1) #3 {
  %3 = alloca <2 x i64>, align 16
  %4 = alloca <2 x i64>, align 16
  store <2 x i64> %0, ptr %3, align 16, !tbaa !11
  store <2 x i64> %1, ptr %4, align 16, !tbaa !11
  %5 = load <2 x i64>, ptr %3, align 16, !tbaa !11
  %6 = load <2 x i64>, ptr %4, align 16, !tbaa !11
  %7 = and <2 x i64> %5, %6
  ret <2 x i64> %7
}

; Function Attrs: alwaysinline nounwind uwtable
define internal <2 x i64> @_mm_cmpeq_epi32(<2 x i64> noundef %0, <2 x i64> noundef %1) #3 {
  %3 = alloca <2 x i64>, align 16
  %4 = alloca <2 x i64>, align 16
  store <2 x i64> %0, ptr %3, align 16, !tbaa !11
  store <2 x i64> %1, ptr %4, align 16, !tbaa !11
  %5 = load <2 x i64>, ptr %3, align 16, !tbaa !11
  %6 = bitcast <2 x i64> %5 to <4 x i32>
  %7 = load <2 x i64>, ptr %4, align 16, !tbaa !11
  %8 = bitcast <2 x i64> %7 to <4 x i32>
  %9 = icmp eq <4 x i32> %6, %8
  %10 = sext <4 x i1> %9 to <4 x i32>
  %11 = bitcast <4 x i32> %10 to <2 x i64>
  ret <2 x i64> %11
}

; Function Attrs: alwaysinline nounwind uwtable
define internal <2 x i64> @_mm_srai_epi32(<2 x i64> noundef %0, i32 noundef %1) #3 {
  %3 = alloca <2 x i64>, align 16
  %4 = alloca i32, align 4
  store <2 x i64> %0, ptr %3, align 16, !tbaa !11
  store i32 %1, ptr %4, align 4, !tbaa !9
  %5 = load <2 x i64>, ptr %3, align 16, !tbaa !11
  %6 = bitcast <2 x i64> %5 to <4 x i32>
  %7 = load i32, ptr %4, align 4, !tbaa !9
  %8 = call <4 x i32> @llvm.x86.sse2.psrai.d(<4 x i32> %6, i32 %7)
  %9 = bitcast <4 x i32> %8 to <2 x i64>
  ret <2 x i64> %9
}

; Function Attrs: alwaysinline nounwind uwtable
define internal <2 x i64> @_mm_loadu_si128(ptr noundef %0) #3 {
  %2 = alloca ptr, align 8
  store ptr %0, ptr %2, align 8, !tbaa !3
  %3 = load ptr, ptr %2, align 8, !tbaa !3
  %4 = getelementptr inbounds nuw %struct.__loadu_si128, ptr %3, i32 0, i32 0
  %5 = load <2 x i64>, ptr %4, align 1, !tbaa !11
  ret <2 x i64> %5
}

; Function Attrs: alwaysinline nounwind uwtable
define internal <2 x i64> @_mm_setzero_si128() #3 {
  %1 = alloca <2 x i64>, align 16
  store <2 x i64> zeroinitializer, ptr %1, align 16, !tbaa !11
  %2 = load <2 x i64>, ptr %1, align 16, !tbaa !11
  ret <2 x i64> %2
}

; Function Attrs: alwaysinline nounwind uwtable
define internal <2 x i64> @_mm_set1_epi32(i32 noundef %0) #3 {
  %2 = alloca i32, align 4
  store i32 %0, ptr %2, align 4, !tbaa !9
  %3 = load i32, ptr %2, align 4, !tbaa !9
  %4 = load i32, ptr %2, align 4, !tbaa !9
  %5 = load i32, ptr %2, align 4, !tbaa !9
  %6 = load i32, ptr %2, align 4, !tbaa !9
  %7 = call <2 x i64> @_mm_set_epi32(i32 noundef %3, i32 noundef %4, i32 noundef %5, i32 noundef %6)
  ret <2 x i64> %7
}

; Function Attrs: nounwind uwtable
define internal void @AlphaReplace_SSE2(ptr noundef %0, i32 noundef %1, i32 noundef %2) #1 {
  %4 = alloca ptr, align 8
  %5 = alloca i32, align 4
  %6 = alloca i32, align 4
  %7 = alloca <2 x i64>, align 16
  %8 = alloca <2 x i64>, align 16
  %9 = alloca i32, align 4
  %10 = alloca <2 x i64>, align 16
  %11 = alloca <2 x i64>, align 16
  %12 = alloca <2 x i64>, align 16
  %13 = alloca <2 x i64>, align 16
  %14 = alloca <2 x i64>, align 16
  %15 = alloca <2 x i64>, align 16
  %16 = alloca <2 x i64>, align 16
  %17 = alloca <2 x i64>, align 16
  %18 = alloca <2 x i64>, align 16
  %19 = alloca <2 x i64>, align 16
  store ptr %0, ptr %4, align 8, !tbaa !7
  store i32 %1, ptr %5, align 4, !tbaa !9
  store i32 %2, ptr %6, align 4, !tbaa !9
  call void @llvm.lifetime.start.p0(i64 16, ptr %7) #6
  %20 = load i32, ptr %6, align 4, !tbaa !9
  %21 = call <2 x i64> @_mm_set1_epi32(i32 noundef %20)
  store <2 x i64> %21, ptr %7, align 16, !tbaa !11
  call void @llvm.lifetime.start.p0(i64 16, ptr %8) #6
  %22 = call <2 x i64> @_mm_setzero_si128()
  store <2 x i64> %22, ptr %8, align 16, !tbaa !11
  call void @llvm.lifetime.start.p0(i64 4, ptr %9) #6
  store i32 0, ptr %9, align 4, !tbaa !9
  br label %23

23:                                               ; preds = %79, %3
  %24 = load i32, ptr %9, align 4, !tbaa !9
  %25 = add nsw i32 %24, 8
  %26 = load i32, ptr %5, align 4, !tbaa !9
  %27 = icmp sle i32 %25, %26
  br i1 %27, label %28, label %82

28:                                               ; preds = %23
  call void @llvm.lifetime.start.p0(i64 16, ptr %10) #6
  %29 = load ptr, ptr %4, align 8, !tbaa !7
  %30 = load i32, ptr %9, align 4, !tbaa !9
  %31 = sext i32 %30 to i64
  %32 = getelementptr inbounds i32, ptr %29, i64 %31
  %33 = getelementptr inbounds i32, ptr %32, i64 0
  %34 = call <2 x i64> @_mm_loadu_si128(ptr noundef %33)
  store <2 x i64> %34, ptr %10, align 16, !tbaa !11
  call void @llvm.lifetime.start.p0(i64 16, ptr %11) #6
  %35 = load ptr, ptr %4, align 8, !tbaa !7
  %36 = load i32, ptr %9, align 4, !tbaa !9
  %37 = sext i32 %36 to i64
  %38 = getelementptr inbounds i32, ptr %35, i64 %37
  %39 = getelementptr inbounds i32, ptr %38, i64 4
  %40 = call <2 x i64> @_mm_loadu_si128(ptr noundef %39)
  store <2 x i64> %40, ptr %11, align 16, !tbaa !11
  call void @llvm.lifetime.start.p0(i64 16, ptr %12) #6
  %41 = load <2 x i64>, ptr %10, align 16, !tbaa !11
  %42 = call <2 x i64> @_mm_srai_epi32(<2 x i64> noundef %41, i32 noundef 24)
  store <2 x i64> %42, ptr %12, align 16, !tbaa !11
  call void @llvm.lifetime.start.p0(i64 16, ptr %13) #6
  %43 = load <2 x i64>, ptr %11, align 16, !tbaa !11
  %44 = call <2 x i64> @_mm_srai_epi32(<2 x i64> noundef %43, i32 noundef 24)
  store <2 x i64> %44, ptr %13, align 16, !tbaa !11
  call void @llvm.lifetime.start.p0(i64 16, ptr %14) #6
  %45 = load <2 x i64>, ptr %12, align 16, !tbaa !11
  %46 = load <2 x i64>, ptr %8, align 16, !tbaa !11
  %47 = call <2 x i64> @_mm_cmpeq_epi32(<2 x i64> noundef %45, <2 x i64> noundef %46)
  store <2 x i64> %47, ptr %14, align 16, !tbaa !11
  call void @llvm.lifetime.start.p0(i64 16, ptr %15) #6
  %48 = load <2 x i64>, ptr %13, align 16, !tbaa !11
  %49 = load <2 x i64>, ptr %8, align 16, !tbaa !11
  %50 = call <2 x i64> @_mm_cmpeq_epi32(<2 x i64> noundef %48, <2 x i64> noundef %49)
  store <2 x i64> %50, ptr %15, align 16, !tbaa !11
  call void @llvm.lifetime.start.p0(i64 16, ptr %16) #6
  %51 = load <2 x i64>, ptr %14, align 16, !tbaa !11
  %52 = load <2 x i64>, ptr %7, align 16, !tbaa !11
  %53 = call <2 x i64> @_mm_and_si128(<2 x i64> noundef %51, <2 x i64> noundef %52)
  store <2 x i64> %53, ptr %16, align 16, !tbaa !11
  call void @llvm.lifetime.start.p0(i64 16, ptr %17) #6
  %54 = load <2 x i64>, ptr %15, align 16, !tbaa !11
  %55 = load <2 x i64>, ptr %7, align 16, !tbaa !11
  %56 = call <2 x i64> @_mm_and_si128(<2 x i64> noundef %54, <2 x i64> noundef %55)
  store <2 x i64> %56, ptr %17, align 16, !tbaa !11
  call void @llvm.lifetime.start.p0(i64 16, ptr %18) #6
  %57 = load <2 x i64>, ptr %14, align 16, !tbaa !11
  %58 = load <2 x i64>, ptr %10, align 16, !tbaa !11
  %59 = call <2 x i64> @_mm_andnot_si128(<2 x i64> noundef %57, <2 x i64> noundef %58)
  store <2 x i64> %59, ptr %18, align 16, !tbaa !11
  call void @llvm.lifetime.start.p0(i64 16, ptr %19) #6
  %60 = load <2 x i64>, ptr %15, align 16, !tbaa !11
  %61 = load <2 x i64>, ptr %11, align 16, !tbaa !11
  %62 = call <2 x i64> @_mm_andnot_si128(<2 x i64> noundef %60, <2 x i64> noundef %61)
  store <2 x i64> %62, ptr %19, align 16, !tbaa !11
  %63 = load ptr, ptr %4, align 8, !tbaa !7
  %64 = load i32, ptr %9, align 4, !tbaa !9
  %65 = sext i32 %64 to i64
  %66 = getelementptr inbounds i32, ptr %63, i64 %65
  %67 = getelementptr inbounds i32, ptr %66, i64 0
  %68 = load <2 x i64>, ptr %16, align 16, !tbaa !11
  %69 = load <2 x i64>, ptr %18, align 16, !tbaa !11
  %70 = call <2 x i64> @_mm_or_si128(<2 x i64> noundef %68, <2 x i64> noundef %69)
  call void @_mm_storeu_si128(ptr noundef %67, <2 x i64> noundef %70)
  %71 = load ptr, ptr %4, align 8, !tbaa !7
  %72 = load i32, ptr %9, align 4, !tbaa !9
  %73 = sext i32 %72 to i64
  %74 = getelementptr inbounds i32, ptr %71, i64 %73
  %75 = getelementptr inbounds i32, ptr %74, i64 4
  %76 = load <2 x i64>, ptr %17, align 16, !tbaa !11
  %77 = load <2 x i64>, ptr %19, align 16, !tbaa !11
  %78 = call <2 x i64> @_mm_or_si128(<2 x i64> noundef %76, <2 x i64> noundef %77)
  call void @_mm_storeu_si128(ptr noundef %75, <2 x i64> noundef %78)
  call void @llvm.lifetime.end.p0(i64 16, ptr %19) #6
  call void @llvm.lifetime.end.p0(i64 16, ptr %18) #6
  call void @llvm.lifetime.end.p0(i64 16, ptr %17) #6
  call void @llvm.lifetime.end.p0(i64 16, ptr %16) #6
  call void @llvm.lifetime.end.p0(i64 16, ptr %15) #6
  call void @llvm.lifetime.end.p0(i64 16, ptr %14) #6
  call void @llvm.lifetime.end.p0(i64 16, ptr %13) #6
  call void @llvm.lifetime.end.p0(i64 16, ptr %12) #6
  call void @llvm.lifetime.end.p0(i64 16, ptr %11) #6
  call void @llvm.lifetime.end.p0(i64 16, ptr %10) #6
  br label %79

79:                                               ; preds = %28
  %80 = load i32, ptr %9, align 4, !tbaa !9
  %81 = add nsw i32 %80, 8
  store i32 %81, ptr %9, align 4, !tbaa !9
  br label %23, !llvm.loop !37

82:                                               ; preds = %23
  br label %83

83:                                               ; preds = %102, %82
  %84 = load i32, ptr %9, align 4, !tbaa !9
  %85 = load i32, ptr %5, align 4, !tbaa !9
  %86 = icmp slt i32 %84, %85
  br i1 %86, label %87, label %105

87:                                               ; preds = %83
  %88 = load ptr, ptr %4, align 8, !tbaa !7
  %89 = load i32, ptr %9, align 4, !tbaa !9
  %90 = sext i32 %89 to i64
  %91 = getelementptr inbounds i32, ptr %88, i64 %90
  %92 = load i32, ptr %91, align 4, !tbaa !9
  %93 = lshr i32 %92, 24
  %94 = icmp eq i32 %93, 0
  br i1 %94, label %95, label %101

95:                                               ; preds = %87
  %96 = load i32, ptr %6, align 4, !tbaa !9
  %97 = load ptr, ptr %4, align 8, !tbaa !7
  %98 = load i32, ptr %9, align 4, !tbaa !9
  %99 = sext i32 %98 to i64
  %100 = getelementptr inbounds i32, ptr %97, i64 %99
  store i32 %96, ptr %100, align 4, !tbaa !9
  br label %101

101:                                              ; preds = %95, %87
  br label %102

102:                                              ; preds = %101
  %103 = load i32, ptr %9, align 4, !tbaa !9
  %104 = add nsw i32 %103, 1
  store i32 %104, ptr %9, align 4, !tbaa !9
  br label %83, !llvm.loop !38

105:                                              ; preds = %83
  call void @llvm.lifetime.end.p0(i64 4, ptr %9) #6
  call void @llvm.lifetime.end.p0(i64 16, ptr %8) #6
  call void @llvm.lifetime.end.p0(i64 16, ptr %7) #6
  ret void
}