; Function Attrs: nofree norecurse nosync nounwind memory(argmem: readwrite) uwtable
define internal void @AlphaReplace_SSE2(ptr noundef captures(none) %0, i32 noundef %1, i32 noundef %2) #2 {
  %4 = insertelement <4 x i32> poison, i32 %2, i64 0
  %5 = shufflevector <4 x i32> %4, <4 x i32> poison, <4 x i32> zeroinitializer
  %.not38 = icmp slt i32 %1, 8
  br i1 %.not38, label %.preheader, label %.lr.ph.preheader

.lr.ph.preheader:                                 ; preds = %3
  %6 = zext nneg i32 %1 to i64
  br label %.lr.ph

.preheader.loopexit:                              ; preds = %.lr.ph
  %7 = trunc nuw nsw i64 %indvars.iv to i32
  br label %.preheader

.preheader:                                       ; preds = %.preheader.loopexit, %3
  %.0.lcssa = phi i32 [ 0, %3 ], [ %7, %.preheader.loopexit ]
  %8 = icmp slt i32 %.0.lcssa, %1
  br i1 %8, label %.lr.ph41.preheader, label %._crit_edge

.lr.ph41.preheader:                               ; preds = %.preheader
  %9 = zext nneg i32 %.0.lcssa to i64
  %wide.trip.count = zext i32 %1 to i64
  br label %.lr.ph41

.lr.ph:                                           ; preds = %.lr.ph.preheader, %.lr.ph
  %indvars.iv42 = phi i64 [ 0, %.lr.ph.preheader ], [ %indvars.iv.next43, %.lr.ph ]
  %indvars.iv = phi i64 [ 8, %.lr.ph.preheader ], [ %indvars.iv.next, %.lr.ph ]
  %10 = getelementptr inbounds nuw i32, ptr %0, i64 %indvars.iv42
  %11 = load <4 x i32>, ptr %10, align 1, !tbaa !7
  %12 = getelementptr inbounds nuw i8, ptr %10, i64 16
  %13 = load <2 x i64>, ptr %12, align 1, !tbaa !7
  %14 = bitcast <2 x i64> %13 to <4 x i32>
  %15 = icmp ult <4 x i32> %11, splat (i32 16777216)
  %16 = icmp ugt <4 x i32> %14, splat (i32 16777215)
  %17 = select <4 x i1> %16, <4 x i32> zeroinitializer, <4 x i32> %5
  %18 = bitcast <4 x i32> %17 to <2 x i64>
  %19 = sext <4 x i1> %16 to <4 x i32>
  %20 = bitcast <4 x i32> %19 to <2 x i64>
  %21 = and <2 x i64> %13, %20
  %22 = select <4 x i1> %15, <4 x i32> %5, <4 x i32> %11
  store <4 x i32> %22, ptr %10, align 1, !tbaa !7
  %23 = or <2 x i64> %21, %18
  store <2 x i64> %23, ptr %12, align 1, !tbaa !7
  %indvars.iv.next = add nuw nsw i64 %indvars.iv, 8
  %.not = icmp samesign ugt i64 %indvars.iv.next, %6
  %indvars.iv.next43 = add nuw nsw i64 %indvars.iv42, 8
  br i1 %.not, label %.preheader.loopexit, label %.lr.ph, !llvm.loop !33

.lr.ph41:                                         ; preds = %.lr.ph41.preheader, %28
  %indvars.iv47 = phi i64 [ %9, %.lr.ph41.preheader ], [ %indvars.iv.next48, %28 ]
  %24 = getelementptr inbounds nuw i32, ptr %0, i64 %indvars.iv47
  %25 = load i32, ptr %24, align 4, !tbaa !19
  %26 = icmp ult i32 %25, 16777216
  br i1 %26, label %27, label %28

27:                                               ; preds = %.lr.ph41
  store i32 %2, ptr %24, align 4, !tbaa !19
  br label %28

28:                                               ; preds = %.lr.ph41, %27
  %indvars.iv.next48 = add nuw nsw i64 %indvars.iv47, 1
  %exitcond.not = icmp eq i64 %indvars.iv.next48, %wide.trip.count
  br i1 %exitcond.not, label %._crit_edge, label %.lr.ph41, !llvm.loop !34

._crit_edge:                                      ; preds = %28, %.preheader
  ret void
}